; ModuleID = '57/283.c'
source_filename = "57/283.c"
target datalayout = "e-m:e-p270:32:32-p271:32:32-p272:64:64-i64:64-f80:128-n8:16:32:64-S128"
target triple = "x86_64-pc-linux-gnu"

@.str = private unnamed_addr constant [3 x i8] c"%d\00", align 1
@.str.1 = private unnamed_addr constant [3 x i8] c"%s\00", align 1
@.str.2 = private unnamed_addr constant [3 x i8] c"%c\00", align 1
@.str.3 = private unnamed_addr constant [2 x i8] c"\0A\00", align 1

; Function Attrs: noinline nounwind uwtable
define dso_local void @main() #0 {
  %1 = alloca i32, align 4
  %2 = alloca i32, align 4
  %3 = alloca [100 x [100 x i8]], align 16
  %4 = alloca i32, align 4
  %5 = alloca i32, align 4
  %6 = call i32 (i8*, ...) @__isoc99_scanf(i8* getelementptr inbounds ([3 x i8], [3 x i8]* @.str, i64 0, i64 0), i32* %2)
  store i32 0, i32* %1, align 4
  br label %7

7:                                                ; preds = %17, %0
  %8 = load i32, i32* %1, align 4
  %9 = load i32, i32* %2, align 4
  %10 = icmp slt i32 %8, %9
  br i1 %10, label %11, label %20

11:                                               ; preds = %7
  %12 = load i32, i32* %1, align 4
  %13 = sext i32 %12 to i64
  %14 = getelementptr inbounds [100 x [100 x i8]], [100 x [100 x i8]]* %3, i64 0, i64 %13
  %15 = getelementptr inbounds [100 x i8], [100 x i8]* %14, i64 0, i64 0
  %16 = call i32 (i8*, ...) @__isoc99_scanf(i8* getelementptr inbounds ([3 x i8], [3 x i8]* @.str.1, i64 0, i64 0), i8* %15)
  br label %17

17:                                               ; preds = %11
  %18 = load i32, i32* %1, align 4
  %19 = add nsw i32 %18, 1
  store i32 %19, i32* %1, align 4
  br label %7

20:                                               ; preds = %7
  store i32 0, i32* %1, align 4
  br label %21

21:                                               ; preds = %178, %20
  %22 = load i32, i32* %1, align 4
  %23 = load i32, i32* %2, align 4
  %24 = icmp slt i32 %22, %23
  br i1 %24, label %25, label %181

25:                                               ; preds = %21
  %26 = load i32, i32* %1, align 4
  %27 = sext i32 %26 to i64
  %28 = getelementptr inbounds [100 x [100 x i8]], [100 x [100 x i8]]* %3, i64 0, i64 %27
  %29 = getelementptr inbounds [100 x i8], [100 x i8]* %28, i64 0, i64 0
  %30 = call i64 @strlen(i8* %29) #3
  %31 = trunc i64 %30 to i32
  store i32 %31, i32* %4, align 4
  %32 = load i32, i32* %1, align 4
  %33 = sext i32 %32 to i64
  %34 = getelementptr inbounds [100 x [100 x i8]], [100 x [100 x i8]]* %3, i64 0, i64 %33
  %35 = load i32, i32* %4, align 4
  %36 = sub nsw i32 %35, 1
  %37 = sext i32 %36 to i64
  %38 = getelementptr inbounds [100 x i8], [100 x i8]* %34, i64 0, i64 %37
  %39 = load i8, i8* %38, align 1
  %40 = sext i8 %39 to i32
  %41 = icmp eq i32 %40, 114
  br i1 %41, label %42, label %73

42:                                               ; preds = %25
  %43 = load i32, i32* %1, align 4
  %44 = sext i32 %43 to i64
  %45 = getelementptr inbounds [100 x [100 x i8]], [100 x [100 x i8]]* %3, i64 0, i64 %44
  %46 = load i32, i32* %4, align 4
  %47 = sub nsw i32 %46, 2
  %48 = sext i32 %47 to i64
  %49 = getelementptr inbounds [100 x i8], [100 x i8]* %45, i64 0, i64 %48
  %50 = load i8, i8* %49, align 1
  %51 = sext i8 %50 to i32
  %52 = icmp eq i32 %51, 101
  br i1 %52, label %53, label %73

53:                                               ; preds = %42
  store i32 0, i32* %5, align 4
  br label %54

54:                                               ; preds = %69, %53
  %55 = load i32, i32* %5, align 4
  %56 = load i32, i32* %4, align 4
  %57 = sub nsw i32 %56, 2
  %58 = icmp slt i32 %55, %57
  br i1 %58, label %59, label %72

59:                                               ; preds = %54
  %60 = load i32, i32* %1, align 4
  %61 = sext i32 %60 to i64
  %62 = getelementptr inbounds [100 x [100 x i8]], [100 x [100 x i8]]* %3, i64 0, i64 %61
  %63 = load i32, i32* %5, align 4
  %64 = sext i32 %63 to i64
  %65 = getelementptr inbounds [100 x i8], [100 x i8]* %62, i64 0, i64 %64
  %66 = load i8, i8* %65, align 1
  %67 = sext i8 %66 to i32
  %68 = call i32 (i8*, ...) @printf(i8* getelementptr inbounds ([3 x i8], [3 x i8]* @.str.2, i64 0, i64 0), i32 %67)
  br label %69

69:                                               ; preds = %59
  %70 = load i32, i32* %5, align 4
  %71 = add nsw i32 %70, 1
  store i32 %71, i32* %5, align 4
  br label %54

72:                                               ; preds = %54
  br label %176

73:                                               ; preds = %42, %25
  %74 = load i32, i32* %1, align 4
  %75 = sext i32 %74 to i64
  %76 = getelementptr inbounds [100 x [100 x i8]], [100 x [100 x i8]]* %3, i64 0, i64 %75
  %77 = load i32, i32* %4, align 4
  %78 = sub nsw i32 %77, 1
  %79 = sext i32 %78 to i64
  %80 = getelementptr inbounds [100 x i8], [100 x i8]* %76, i64 0, i64 %79
  %81 = load i8, i8* %80, align 1
  %82 = sext i8 %81 to i32
  %83 = icmp eq i32 %82, 121
  br i1 %83, label %84, label %115

84:                                               ; preds = %73
  %85 = load i32, i32* %1, align 4
  %86 = sext i32 %85 to i64
  %87 = getelementptr inbounds [100 x [100 x i8]], [100 x [100 x i8]]* %3, i64 0, i64 %86
  %88 = load i32, i32* %4, align 4
  %89 = sub nsw i32 %88, 2
  %90 = sext i32 %89 to i64
  %91 = getelementptr inbounds [100 x i8], [100 x i8]* %87, i64 0, i64 %90
  %92 = load i8, i8* %91, align 1
  %93 = sext i8 %92 to i32
  %94 = icmp eq i32 %93, 108
  br i1 %94, label %95, label %115

95:                                               ; preds = %84
  store i32 0, i32* %5, align 4
  br label %96

96:                                               ; preds = %111, %95
  %97 = load i32, i32* %5, align 4
  %98 = load i32, i32* %4, align 4
  %99 = sub nsw i32 %98, 2
  %100 = icmp slt i32 %97, %99
  br i1 %100, label %101, label %114

101:                                              ; preds = %96
  %102 = load i32, i32* %1, align 4
  %103 = sext i32 %102 to i64
  %104 = getelementptr inbounds [100 x [100 x i8]], [100 x [100 x i8]]* %3, i64 0, i64 %103
  %105 = load i32, i32* %5, align 4
  %106 = sext i32 %105 to i64
  %107 = getelementptr inbounds [100 x i8], [100 x i8]* %104, i64 0, i64 %106
  %108 = load i8, i8* %107, align 1
  %109 = sext i8 %108 to i32
  %110 = call i32 (i8*, ...) @printf(i8* getelementptr inbounds ([3 x i8], [3 x i8]* @.str.2, i64 0, i64 0), i32 %109)
  br label %111

111:                                              ; preds = %101
  %112 = load i32, i32* %5, align 4
  %113 = add nsw i32 %112, 1
  store i32 %113, i32* %5, align 4
  br label %96

114:                                              ; preds = %96
  br label %175

115:                                              ; preds = %84, %73
  %116 = load i32, i32* %1, align 4
  %117 = sext i32 %116 to i64
  %118 = getelementptr inbounds [100 x [100 x i8]], [100 x [100 x i8]]* %3, i64 0, i64 %117
  %119 = load i32, i32* %4, align 4
  %120 = sub nsw i32 %119, 1
  %121 = sext i32 %120 to i64
  %122 = getelementptr inbounds [100 x i8], [100 x i8]* %118, i64 0, i64 %121
  %123 = load i8, i8* %122, align 1
  %124 = sext i8 %123 to i32
  %125 = icmp eq i32 %124, 103
  br i1 %125, label %126, label %168

126:                                              ; preds = %115
  %127 = load i32, i32* %1, align 4
  %128 = sext i32 %127 to i64
  %129 = getelementptr inbounds [100 x [100 x i8]], [100 x [100 x i8]]* %3, i64 0, i64 %128
  %130 = load i32, i32* %4, align 4
  %131 = sub nsw i32 %130, 2
  %132 = sext i32 %131 to i64
  %133 = getelementptr inbounds [100 x i8], [100 x i8]* %129, i64 0, i64 %132
  %134 = load i8, i8* %133, align 1
  %135 = sext i8 %134 to i32
  %136 = icmp eq i32 %135, 110
  br i1 %136, label %137, label %168

137:                                              ; preds = %126
  %138 = load i32, i32* %1, align 4
  %139 = sext i32 %138 to i64
  %140 = getelementptr inbounds [100 x [100 x i8]], [100 x [100 x i8]]* %3, i64 0, i64 %139
  %141 = load i32, i32* %4, align 4
  %142 = sub nsw i32 %141, 3
  %143 = sext i32 %142 to i64
  %144 = getelementptr inbounds [100 x i8], [100 x i8]* %140, i64 0, i64 %143
  %145 = load i8, i8* %144, align 1
  %146 = sext i8 %145 to i32
  %147 = icmp eq i32 %146, 105
  br i1 %147, label %148, label %168

148:                                              ; preds = %137
  store i32 0, i32* %5, align 4
  br label %149

149:                                              ; preds = %164, %148
  %150 = load i32, i32* %5, align 4
  %151 = load i32, i32* %4, align 4
  %152 = sub nsw i32 %151, 3
  %153 = icmp slt i32 %150, %152
  br i1 %153, label %154, label %167

154:                                              ; preds = %149
  %155 = load i32, i32* %1, align 4
  %156 = sext i32 %155 to i64
  %157 = getelementptr inbounds [100 x [100 x i8]], [100 x [100 x i8]]* %3, i64 0, i64 %156
  %158 = load i32, i32* %5, align 4
  %159 = sext i32 %158 to i64
  %160 = getelementptr inbounds [100 x i8], [100 x i8]* %157, i64 0, i64 %159
  %161 = load i8, i8* %160, align 1
  %162 = sext i8 %161 to i32
  %163 = call i32 (i8*, ...) @printf(i8* getelementptr inbounds ([3 x i8], [3 x i8]* @.str.2, i64 0, i64 0), i32 %162)
  br label %164

164:                                              ; preds = %154
  %165 = load i32, i32* %5, align 4
  %166 = add nsw i32 %165, 1
  store i32 %166, i32* %5, align 4
  br label %149

167:                                              ; preds = %149
  br label %174

168:                                              ; preds = %137, %126, %115
  %169 = load i32, i32* %1, align 4
  %170 = sext i32 %169 to i64
  %171 = getelementptr inbounds [100 x [100 x i8]], [100 x [100 x i8]]* %3, i64 0, i64 %170
  %172 = getelementptr inbounds [100 x i8], [100 x i8]* %171, i64 0, i64 0
  %173 = call i32 (i8*, ...) @printf(i8* getelementptr inbounds ([3 x i8], [3 x i8]* @.str.1, i64 0, i64 0), i8* %172)
  br label %174

174:                                              ; preds = %168, %167
  br label %175

175:                                              ; preds = %174, %114
  br label %176

176:                                              ; preds = %175, %72
  %177 = call i32 (i8*, ...) @printf(i8* getelementptr inbounds ([2 x i8], [2 x i8]* @.str.3, i64 0, i64 0))
  br label %178

178:                                              ; preds = %176
  %179 = load i32, i32* %1, align 4
  %180 = add nsw i32 %179, 1
  store i32 %180, i32* %1, align 4
  br label %21

181:                                              ; preds = %21
  ret void
}

declare dso_local i32 @__isoc99_scanf(i8*, ...) #1

; Function Attrs: nounwind readonly
declare dso_local i64 @strlen(i8*) #2

declare dso_local i32 @printf(i8*, ...) #1


!llvm.module.flags = !{!0}
!llvm.ident = !{!1}

!0 = !{i32 1, !"wchar_size", i32 4}
!1 = !{!"clang version 10.0.0-4ubuntu1 "}
